; Function Attrs: mustprogress uwtable
define hidden void @_ZN7datalog11check_table11remove_factEPKm(ptr nocapture noundef nonnull readonly align 8 dereferenceable(56) %this, ptr noundef %f) unnamed_addr #3 align 2 {
entry:
  %call = tail call noundef i32 @_Z19get_verbosity_levelv()
  %cmp.not = icmp eq i32 %call, 0
  br i1 %cmp.not, label %if.end10, label %if.then

if.then:                                          ; preds = %entry
  %call2 = tail call noundef zeroext i1 @_Z11is_threadedv()
  br i1 %call2, label %if.then3, label %if.else

if.then3:                                         ; preds = %if.then
  tail call void @_Z12verbose_lockv()
  %call4 = tail call noundef nonnull align 8 dereferenceable(8) ptr @_Z14verbose_streamv()
  %call5 = tail call noundef nonnull align 8 dereferenceable(8) ptr @_ZStlsISt11char_traitsIcEERSt13basic_ostreamIcT_ES5_PKc(ptr noundef nonnull align 8 dereferenceable(8) %call4, ptr noundef nonnull @__FUNCTION__._ZN7datalog11check_table11remove_factEPKm)
  %call6 = tail call noundef nonnull align 8 dereferenceable(8) ptr @_ZStlsISt11char_traitsIcEERSt13basic_ostreamIcT_ES5_PKc(ptr noundef nonnull align 8 dereferenceable(8) %call5, ptr noundef nonnull @.str)
  tail call void @_Z14verbose_unlockv()
  br label %if.end10

if.else:                                          ; preds = %if.then
  %call7 = tail call noundef nonnull align 8 dereferenceable(8) ptr @_Z14verbose_streamv()
  %call8 = tail call noundef nonnull align 8 dereferenceable(8) ptr @_ZStlsISt11char_traitsIcEERSt13basic_ostreamIcT_ES5_PKc(ptr noundef nonnull align 8 dereferenceable(8) %call7, ptr noundef nonnull @__FUNCTION__._ZN7datalog11check_table11remove_factEPKm)
  %call9 = tail call noundef nonnull align 8 dereferenceable(8) ptr @_ZStlsISt11char_traitsIcEERSt13basic_ostreamIcT_ES5_PKc(ptr noundef nonnull align 8 dereferenceable(8) %call8, ptr noundef nonnull @.str)
  br label %if.end10

if.end10:                                         ; preds = %if.then3, %if.else, %entry
  %m_tocheck = getelementptr inbounds i8, ptr %this, i64 48
  %0 = load ptr, ptr %m_tocheck, align 8
  %vtable = load ptr, ptr %0, align 8
  %vfn = getelementptr inbounds i8, ptr %vtable, i64 168
  %1 = load ptr, ptr %vfn, align 8
  tail call void %1(ptr noundef nonnull align 8 dereferenceable(36) %0, ptr noundef %f)
  %m_checker = getelementptr inbounds i8, ptr %this, i64 40
  %2 = load ptr, ptr %m_checker, align 8
  %vtable11 = load ptr, ptr %2, align 8
  %vfn12 = getelementptr inbounds i8, ptr %vtable11, i64 168
  %3 = load ptr, ptr %vfn12, align 8
  tail call void %3(ptr noundef nonnull align 8 dereferenceable(36) %2, ptr noundef %f)
  %call13 = tail call noundef zeroext i1 @_ZNK7datalog11check_table11well_formedEv(ptr noundef nonnull align 8 dereferenceable(56) %this)
  ret void
}